target datalayout = "e-m:e-p270:32:32-p271:32:32-p272:64:64-i64:64-i128:128-f80:128-n8:16:32:64-S128"
target triple = "x86_64-pc-linux-gnu"

%struct.__loadu_ps = type { <4 x float> }
%struct.__storeu_ps = type { <4 x float> }

; Function Attrs: alwaysinline nounwind uwtable
define available_externally void @_mm_storeu_ps(ptr noundef %0, <4 x float> noundef %1) #2 {
  %3 = alloca ptr, align 8
  %4 = alloca <4 x float>, align 16
  store ptr %0, ptr %3, align 8, !tbaa !21
  store <4 x float> %1, ptr %4, align 16, !tbaa !12
  %5 = load <4 x float>, ptr %4, align 16, !tbaa !12
  %6 = load ptr, ptr %3, align 8, !tbaa !21
  %7 = getelementptr inbounds nuw %struct.__storeu_ps, ptr %6, i32 0, i32 0
  store <4 x float> %5, ptr %7, align 1, !tbaa !12
  ret void
}

; Function Attrs: alwaysinline nounwind uwtable
define available_externally <4 x float> @_mm_loadu_ps(ptr noundef %0) #2 {
  %2 = alloca ptr, align 8
  store ptr %0, ptr %2, align 8, !tbaa !21
  %3 = load ptr, ptr %2, align 8, !tbaa !21
  %4 = getelementptr inbounds nuw %struct.__loadu_ps, ptr %3, i32 0, i32 0
  %5 = load <4 x float>, ptr %4, align 1, !tbaa !12
  ret <4 x float> %5
}

; Function Attrs: nounwind uwtable
define void @stbir_simd_memcpy(ptr noundef %0, ptr noundef %1, i64 noundef %2) #0 {
  %4 = alloca ptr, align 8
  %5 = alloca ptr, align 8
  %6 = alloca i64, align 8
  %7 = alloca ptr, align 8
  %8 = alloca ptr, align 8
  %9 = alloca i64, align 8
  %10 = alloca <4 x float>, align 16
  %11 = alloca i32, align 4
  %12 = alloca <4 x float>, align 16
  %13 = alloca <4 x float>, align 16
  %14 = alloca <4 x float>, align 16
  %15 = alloca <4 x float>, align 16
  store ptr %0, ptr %4, align 8, !tbaa !3
  store ptr %1, ptr %5, align 8, !tbaa !3
  store i64 %2, ptr %6, align 8, !tbaa !7
  call void @llvm.lifetime.start.p0(i64 8, ptr %7) #12
  %16 = load ptr, ptr %4, align 8, !tbaa !3
  store ptr %16, ptr %7, align 8, !tbaa !9
  call void @llvm.lifetime.start.p0(i64 8, ptr %8) #12
  %17 = load ptr, ptr %4, align 8, !tbaa !3
  %18 = load i64, ptr %6, align 8, !tbaa !7
  %19 = getelementptr inbounds nuw i8, ptr %17, i64 %18
  store ptr %19, ptr %8, align 8, !tbaa !9
  call void @llvm.lifetime.start.p0(i64 8, ptr %9) #12
  %20 = load ptr, ptr %5, align 8, !tbaa !3
  %21 = load ptr, ptr %4, align 8, !tbaa !3
  %22 = ptrtoint ptr %20 to i64
  %23 = ptrtoint ptr %21 to i64
  %24 = sub i64 %22, %23
  store i64 %24, ptr %9, align 8, !tbaa !7
  %25 = load i64, ptr %6, align 8, !tbaa !7
  %26 = icmp ult i64 %25, 64
  br i1 %26, label %27, label %86

27:                                               ; preds = %3
  %28 = load i64, ptr %6, align 8, !tbaa !7
  %29 = icmp ult i64 %28, 16
  br i1 %29, label %30, label %50

30:                                               ; preds = %27
  %31 = load i64, ptr %6, align 8, !tbaa !7
  %32 = icmp ne i64 %31, 0
  br i1 %32, label %33, label %49

33:                                               ; preds = %30
  br label %34

34:                                               ; preds = %44, %33
  %35 = load ptr, ptr %7, align 8, !tbaa !9
  call void asm sideeffect "", "r,~{dirflag},~{fpsr},~{flags}"(ptr %35) #12, !srcloc !11
  %36 = load ptr, ptr %7, align 8, !tbaa !9
  %37 = load i64, ptr %9, align 8, !tbaa !7
  %38 = getelementptr inbounds i8, ptr %36, i64 %37
  %39 = load i8, ptr %38, align 1, !tbaa !12
  %40 = load ptr, ptr %7, align 8, !tbaa !9
  %41 = getelementptr inbounds i8, ptr %40, i64 0
  store i8 %39, ptr %41, align 1, !tbaa !12
  %42 = load ptr, ptr %7, align 8, !tbaa !9
  %43 = getelementptr inbounds nuw i8, ptr %42, i32 1
  store ptr %43, ptr %7, align 8, !tbaa !9
  br label %44

44:                                               ; preds = %34
  %45 = load ptr, ptr %7, align 8, !tbaa !9
  %46 = load ptr, ptr %8, align 8, !tbaa !9
  %47 = icmp ult ptr %45, %46
  br i1 %47, label %34, label %48, !llvm.loop !13

48:                                               ; preds = %44
  br label %49

49:                                               ; preds = %48, %30
  br label %85

50:                                               ; preds = %27
  call void @llvm.lifetime.start.p0(i64 16, ptr %10) #12
  %51 = load ptr, ptr %7, align 8, !tbaa !9
  %52 = load i64, ptr %9, align 8, !tbaa !7
  %53 = getelementptr inbounds i8, ptr %51, i64 %52
  %54 = call <4 x float> @_mm_loadu_ps(ptr noundef %53)
  store <4 x float> %54, ptr %10, align 16, !tbaa !12
  %55 = load ptr, ptr %7, align 8, !tbaa !9
  %56 = load <4 x float>, ptr %10, align 16, !tbaa !12
  call void @_mm_storeu_ps(ptr noundef %55, <4 x float> noundef %56)
  %57 = load ptr, ptr %7, align 8, !tbaa !9
  %58 = ptrtoint ptr %57 to i64
  %59 = add i64 %58, 16
  %60 = and i64 %59, -16
  %61 = inttoptr i64 %60 to ptr
  store ptr %61, ptr %7, align 8, !tbaa !9
  br label %62

62:                                               ; preds = %76, %50
  %63 = load ptr, ptr %7, align 8, !tbaa !9
  call void asm sideeffect "", "r,~{dirflag},~{fpsr},~{flags}"(ptr %63) #12, !srcloc !17
  %64 = load ptr, ptr %7, align 8, !tbaa !9
  %65 = load ptr, ptr %8, align 8, !tbaa !9
  %66 = getelementptr inbounds i8, ptr %65, i64 -16
  %67 = icmp ugt ptr %64, %66
  br i1 %67, label %68, label %76

68:                                               ; preds = %62
  %69 = load ptr, ptr %7, align 8, !tbaa !9
  %70 = load ptr, ptr %8, align 8, !tbaa !9
  %71 = icmp eq ptr %69, %70
  br i1 %71, label %72, label %73

72:                                               ; preds = %68
  store i32 1, ptr %11, align 4
  call void @llvm.lifetime.end.p0(i64 16, ptr %10) #12
  br label %174

73:                                               ; preds = %68
  %74 = load ptr, ptr %8, align 8, !tbaa !9
  %75 = getelementptr inbounds i8, ptr %74, i64 -16
  store ptr %75, ptr %7, align 8, !tbaa !9
  br label %76

76:                                               ; preds = %73, %62
  %77 = load ptr, ptr %7, align 8, !tbaa !9
  %78 = load i64, ptr %9, align 8, !tbaa !7
  %79 = getelementptr inbounds i8, ptr %77, i64 %78
  %80 = call <4 x float> @_mm_loadu_ps(ptr noundef %79)
  store <4 x float> %80, ptr %10, align 16, !tbaa !12
  %81 = load ptr, ptr %7, align 8, !tbaa !9
  %82 = load <4 x float>, ptr %10, align 16, !tbaa !12
  call void @_mm_storeu_ps(ptr noundef %81, <4 x float> noundef %82)
  %83 = load ptr, ptr %7, align 8, !tbaa !9
  %84 = getelementptr inbounds i8, ptr %83, i64 16
  store ptr %84, ptr %7, align 8, !tbaa !9
  br label %62, !llvm.loop !18

85:                                               ; preds = %49
  br label %173

86:                                               ; preds = %3
  call void @llvm.lifetime.start.p0(i64 16, ptr %12) #12
  call void @llvm.lifetime.start.p0(i64 16, ptr %13) #12
  call void @llvm.lifetime.start.p0(i64 16, ptr %14) #12
  call void @llvm.lifetime.start.p0(i64 16, ptr %15) #12
  %87 = load ptr, ptr %7, align 8, !tbaa !9
  %88 = load i64, ptr %9, align 8, !tbaa !7
  %89 = getelementptr inbounds i8, ptr %87, i64 %88
  %90 = getelementptr inbounds i8, ptr %89, i64 0
  %91 = call <4 x float> @_mm_loadu_ps(ptr noundef %90)
  store <4 x float> %91, ptr %12, align 16, !tbaa !12
  %92 = load ptr, ptr %7, align 8, !tbaa !9
  %93 = load i64, ptr %9, align 8, !tbaa !7
  %94 = getelementptr inbounds i8, ptr %92, i64 %93
  %95 = getelementptr inbounds i8, ptr %94, i64 16
  %96 = call <4 x float> @_mm_loadu_ps(ptr noundef %95)
  store <4 x float> %96, ptr %13, align 16, !tbaa !12
  %97 = load ptr, ptr %7, align 8, !tbaa !9
  %98 = load i64, ptr %9, align 8, !tbaa !7
  %99 = getelementptr inbounds i8, ptr %97, i64 %98
  %100 = getelementptr inbounds i8, ptr %99, i64 32
  %101 = call <4 x float> @_mm_loadu_ps(ptr noundef %100)
  store <4 x float> %101, ptr %14, align 16, !tbaa !12
  %102 = load ptr, ptr %7, align 8, !tbaa !9
  %103 = load i64, ptr %9, align 8, !tbaa !7
  %104 = getelementptr inbounds i8, ptr %102, i64 %103
  %105 = getelementptr inbounds i8, ptr %104, i64 48
  %106 = call <4 x float> @_mm_loadu_ps(ptr noundef %105)
  store <4 x float> %106, ptr %15, align 16, !tbaa !12
  %107 = load ptr, ptr %7, align 8, !tbaa !9
  %108 = getelementptr inbounds i8, ptr %107, i64 0
  %109 = load <4 x float>, ptr %12, align 16, !tbaa !12
  call void @_mm_storeu_ps(ptr noundef %108, <4 x float> noundef %109)
  %110 = load ptr, ptr %7, align 8, !tbaa !9
  %111 = getelementptr inbounds i8, ptr %110, i64 16
  %112 = load <4 x float>, ptr %13, align 16, !tbaa !12
  call void @_mm_storeu_ps(ptr noundef %111, <4 x float> noundef %112)
  %113 = load ptr, ptr %7, align 8, !tbaa !9
  %114 = getelementptr inbounds i8, ptr %113, i64 32
  %115 = load <4 x float>, ptr %14, align 16, !tbaa !12
  call void @_mm_storeu_ps(ptr noundef %114, <4 x float> noundef %115)
  %116 = load ptr, ptr %7, align 8, !tbaa !9
  %117 = getelementptr inbounds i8, ptr %116, i64 48
  %118 = load <4 x float>, ptr %15, align 16, !tbaa !12
  call void @_mm_storeu_ps(ptr noundef %117, <4 x float> noundef %118)
  %119 = load ptr, ptr %7, align 8, !tbaa !9
  %120 = ptrtoint ptr %119 to i64
  %121 = add i64 %120, 64
  %122 = and i64 %121, -64
  %123 = inttoptr i64 %122 to ptr
  store ptr %123, ptr %7, align 8, !tbaa !9
  br label %124

124:                                              ; preds = %138, %86
  %125 = load ptr, ptr %7, align 8, !tbaa !9
  call void asm sideeffect "", "r,~{dirflag},~{fpsr},~{flags}"(ptr %125) #12, !srcloc !19
  %126 = load ptr, ptr %7, align 8, !tbaa !9
  %127 = load ptr, ptr %8, align 8, !tbaa !9
  %128 = getelementptr inbounds i8, ptr %127, i64 -64
  %129 = icmp ugt ptr %126, %128
  br i1 %129, label %130, label %138

130:                                              ; preds = %124
  %131 = load ptr, ptr %7, align 8, !tbaa !9
  %132 = load ptr, ptr %8, align 8, !tbaa !9
  %133 = icmp eq ptr %131, %132
  br i1 %133, label %134, label %135

134:                                              ; preds = %130
  store i32 1, ptr %11, align 4
  call void @llvm.lifetime.end.p0(i64 16, ptr %15) #12
  call void @llvm.lifetime.end.p0(i64 16, ptr %14) #12
  call void @llvm.lifetime.end.p0(i64 16, ptr %13) #12
  call void @llvm.lifetime.end.p0(i64 16, ptr %12) #12
  br label %174

135:                                              ; preds = %130
  %136 = load ptr, ptr %8, align 8, !tbaa !9
  %137 = getelementptr inbounds i8, ptr %136, i64 -64
  store ptr %137, ptr %7, align 8, !tbaa !9
  br label %138

138:                                              ; preds = %135, %124
  %139 = load ptr, ptr %7, align 8, !tbaa !9
  %140 = load i64, ptr %9, align 8, !tbaa !7
  %141 = getelementptr inbounds i8, ptr %139, i64 %140
  %142 = getelementptr inbounds i8, ptr %141, i64 0
  %143 = call <4 x float> @_mm_loadu_ps(ptr noundef %142)
  store <4 x float> %143, ptr %12, align 16, !tbaa !12
  %144 = load ptr, ptr %7, align 8, !tbaa !9
  %145 = load i64, ptr %9, align 8, !tbaa !7
  %146 = getelementptr inbounds i8, ptr %144, i64 %145
  %147 = getelementptr inbounds i8, ptr %146, i64 16
  %148 = call <4 x float> @_mm_loadu_ps(ptr noundef %147)
  store <4 x float> %148, ptr %13, align 16, !tbaa !12
  %149 = load ptr, ptr %7, align 8, !tbaa !9
  %150 = load i64, ptr %9, align 8, !tbaa !7
  %151 = getelementptr inbounds i8, ptr %149, i64 %150
  %152 = getelementptr inbounds i8, ptr %151, i64 32
  %153 = call <4 x float> @_mm_loadu_ps(ptr noundef %152)
  store <4 x float> %153, ptr %14, align 16, !tbaa !12
  %154 = load ptr, ptr %7, align 8, !tbaa !9
  %155 = load i64, ptr %9, align 8, !tbaa !7
  %156 = getelementptr inbounds i8, ptr %154, i64 %155
  %157 = getelementptr inbounds i8, ptr %156, i64 48
  %158 = call <4 x float> @_mm_loadu_ps(ptr noundef %157)
  store <4 x float> %158, ptr %15, align 16, !tbaa !12
  %159 = load ptr, ptr %7, align 8, !tbaa !9
  %160 = getelementptr inbounds i8, ptr %159, i64 0
  %161 = load <4 x float>, ptr %12, align 16, !tbaa !12
  call void @_mm_storeu_ps(ptr noundef %160, <4 x float> noundef %161)
  %162 = load ptr, ptr %7, align 8, !tbaa !9
  %163 = getelementptr inbounds i8, ptr %162, i64 16
  %164 = load <4 x float>, ptr %13, align 16, !tbaa !12
  call void @_mm_storeu_ps(ptr noundef %163, <4 x float> noundef %164)
  %165 = load ptr, ptr %7, align 8, !tbaa !9
  %166 = getelementptr inbounds i8, ptr %165, i64 32
  %167 = load <4 x float>, ptr %14, align 16, !tbaa !12
  call void @_mm_storeu_ps(ptr noundef %166, <4 x float> noundef %167)
  %168 = load ptr, ptr %7, align 8, !tbaa !9
  %169 = getelementptr inbounds i8, ptr %168, i64 48
  %170 = load <4 x float>, ptr %15, align 16, !tbaa !12
  call void @_mm_storeu_ps(ptr noundef %169, <4 x float> noundef %170)
  %171 = load ptr, ptr %7, align 8, !tbaa !9
  %172 = getelementptr inbounds i8, ptr %171, i64 64
  store ptr %172, ptr %7, align 8, !tbaa !9
  br label %124, !llvm.loop !20

173:                                              ; preds = %85
  store i32 0, ptr %11, align 4
  br label %174

174:                                              ; preds = %173, %134, %72
  call void @llvm.lifetime.end.p0(i64 8, ptr %9) #12
  call void @llvm.lifetime.end.p0(i64 8, ptr %8) #12
  call void @llvm.lifetime.end.p0(i64 8, ptr %7) #12
  %175 = load i32, ptr %11, align 4
  switch i32 %175, label %177 [
    i32 0, label %176
    i32 1, label %176
  ]

176:                                              ; preds = %174, %174
  ret void

177:                                              ; preds = %174
  unreachable
}

; Function Attrs: nounwind uwtable
define void @stbir__encode_float_linear(ptr noundef %0, i32 noundef %1, ptr noundef %2) #3 {
  %4 = alloca ptr, align 8
  %5 = alloca i32, align 4
  %6 = alloca ptr, align 8
  store ptr %0, ptr %4, align 8, !tbaa !3
  store i32 %1, ptr %5, align 4, !tbaa !26
  store ptr %2, ptr %6, align 8, !tbaa !21
  %7 = load ptr, ptr %4, align 8, !tbaa !3
  %8 = load ptr, ptr %6, align 8, !tbaa !21
  %9 = icmp ne ptr %7, %8
  br i1 %9, label %10, label %16

10:                                               ; preds = %3
  %11 = load ptr, ptr %4, align 8, !tbaa !3
  %12 = load ptr, ptr %6, align 8, !tbaa !21
  %13 = load i32, ptr %5, align 4, !tbaa !26
  %14 = sext i32 %13 to i64
  %15 = mul i64 %14, 4
  call void @stbir_simd_memcpy(ptr noundef %11, ptr noundef %12, i64 noundef %15)
  br label %16

16:                                               ; preds = %10, %3
  ret void
}